target datalayout = "e-m:e-p270:32:32-p271:32:32-p272:64:64-i64:64-i128:128-f80:128-n8:16:32:64-S128"
target triple = "x86_64-unknown-linux-gnu"

%"class.std::basic_istream" = type { ptr, i64, %"class.std::basic_ios" }
%"class.std::basic_ios" = type { %"class.std::ios_base", ptr, i8, i8, ptr, ptr, ptr, ptr }
%"class.std::ios_base" = type { ptr, i64, i64, i32, i32, i32, ptr, %"struct.std::ios_base::_Words", [8 x %"struct.std::ios_base::_Words"], i32, ptr, %"class.std::locale" }
%"struct.std::ios_base::_Words" = type { ptr, i64 }
%"class.std::locale" = type { ptr }
%"class.std::basic_ostream" = type { ptr, %"class.std::basic_ios" }
%class.veloxtpFlexLexer = type <{ %class.FlexLexer.base, i32, i32, [4 x i8], ptr, %"class.std::basic_istream", %"class.std::basic_ostream", i8, [3 x i8], i32, ptr, i32, i32, i32, [4 x i8], i64, i64, ptr, i32, [4 x i8], ptr, ptr, ptr, ptr, ptr, i32, i32, i32, i32, i32, i32, i32, [4 x i8] }>
%class.FlexLexer.base = type <{ ptr, ptr, i32, i32, i32 }>
%class.FlexLexer = type <{ ptr, ptr, i32, i32, i32, [4 x i8] }>

@_ZL12yy_NUL_trans = internal constant <{ i32, i32, i32, [58 x i32] }> <{ i32 0, i32 4, i32 4, [58 x i32] zeroinitializer }>, align 16

; Function Attrs: mustprogress nounwind uwtable
define noundef i32 @_ZN16veloxtpFlexLexer21yy_get_previous_stateEv(ptr noundef nonnull align 8 dereferenceable(732) %this) #4 align 2 {
entry:
  %this.addr = alloca ptr, align 8
  %yy_current_state = alloca i32, align 4
  %yy_cp = alloca ptr, align 8
  store ptr %this, ptr %this.addr, align 8
  %this1 = load ptr, ptr %this.addr, align 8
  %yy_start = getelementptr inbounds %class.veloxtpFlexLexer, ptr %this1, i32 0, i32 12
  %0 = load i32, ptr %yy_start, align 4
  store i32 %0, ptr %yy_current_state, align 4
  %yytext = getelementptr inbounds %class.FlexLexer, ptr %this1, i32 0, i32 1
  %1 = load ptr, ptr %yytext, align 8
  %add.ptr = getelementptr inbounds i8, ptr %1, i64 0
  store ptr %add.ptr, ptr %yy_cp, align 8
  br label %for.cond

for.cond:                                         ; preds = %for.inc, %entry
  %2 = load ptr, ptr %yy_cp, align 8
  %yy_c_buf_p = getelementptr inbounds %class.veloxtpFlexLexer, ptr %this1, i32 0, i32 10
  %3 = load ptr, ptr %yy_c_buf_p, align 8
  %cmp = icmp ult ptr %2, %3
  br i1 %cmp, label %for.body, label %for.end

for.body:                                         ; preds = %for.cond
  %4 = load ptr, ptr %yy_cp, align 8
  %5 = load i8, ptr %4, align 1
  %tobool = icmp ne i8 %5, 0
  br i1 %tobool, label %if.then, label %if.else

if.then:                                          ; preds = %for.body
  %6 = load i32, ptr %yy_current_state, align 4
  %idxprom = sext i32 %6 to i64
  %arrayidx = getelementptr inbounds [61 x [128 x i16]], ptr @_ZL6yy_nxt, i64 0, i64 %idxprom
  %7 = load ptr, ptr %yy_cp, align 8
  %8 = load i8, ptr %7, align 1
  %idxprom2 = zext i8 %8 to i64
  %arrayidx3 = getelementptr inbounds [128 x i16], ptr %arrayidx, i64 0, i64 %idxprom2
  %9 = load i16, ptr %arrayidx3, align 2
  %conv = sext i16 %9 to i32
  store i32 %conv, ptr %yy_current_state, align 4
  br label %if.end

if.else:                                          ; preds = %for.body
  %10 = load i32, ptr %yy_current_state, align 4
  %idxprom4 = sext i32 %10 to i64
  %arrayidx5 = getelementptr inbounds [61 x i32], ptr @_ZL12yy_NUL_trans, i64 0, i64 %idxprom4
  %11 = load i32, ptr %arrayidx5, align 4
  store i32 %11, ptr %yy_current_state, align 4
  br label %if.end

if.end:                                           ; preds = %if.else, %if.then
  %12 = load i32, ptr %yy_current_state, align 4
  %idxprom6 = sext i32 %12 to i64
  %arrayidx7 = getelementptr inbounds [61 x i16], ptr @_ZL9yy_accept, i64 0, i64 %idxprom6
  %13 = load i16, ptr %arrayidx7, align 2
  %tobool8 = icmp ne i16 %13, 0
  br i1 %tobool8, label %if.then9, label %if.end10

if.then9:                                         ; preds = %if.end
  %14 = load i32, ptr %yy_current_state, align 4
  %yy_last_accepting_state = getelementptr inbounds %class.veloxtpFlexLexer, ptr %this1, i32 0, i32 18
  store i32 %14, ptr %yy_last_accepting_state, align 8
  %15 = load ptr, ptr %yy_cp, align 8
  %yy_last_accepting_cpos = getelementptr inbounds %class.veloxtpFlexLexer, ptr %this1, i32 0, i32 20
  store ptr %15, ptr %yy_last_accepting_cpos, align 8
  br label %if.end10

if.end10:                                         ; preds = %if.then9, %if.end
  br label %for.inc

for.inc:                                          ; preds = %if.end10
  %16 = load ptr, ptr %yy_cp, align 8
  %incdec.ptr = getelementptr inbounds i8, ptr %16, i32 1
  store ptr %incdec.ptr, ptr %yy_cp, align 8
  br label %for.cond, !llvm.loop !7

for.end:                                          ; preds = %for.cond
  %17 = load i32, ptr %yy_current_state, align 4
  ret i32 %17
}