; Function Attrs: mustprogress nofree norecurse nosync nounwind memory(read, argmem: readwrite, inaccessiblemem: none) uwtable
define noundef i32 @_ZN16veloxtpFlexLexer21yy_get_previous_stateEv(ptr nocapture noundef nonnull align 8 dereferenceable(732) %this) local_unnamed_addr #5 align 2 {
entry:
  %yy_start = getelementptr inbounds i8, ptr %this, i64 620
  %0 = load i32, ptr %yy_start, align 4
  %yytext = getelementptr inbounds i8, ptr %this, i64 8
  %1 = load ptr, ptr %yytext, align 8
  %yy_c_buf_p = getelementptr inbounds i8, ptr %this, i64 608
  %2 = load ptr, ptr %yy_c_buf_p, align 8
  %cmp9 = icmp ult ptr %1, %2
  br i1 %cmp9, label %for.body.lr.ph, label %for.end

for.body.lr.ph:                                   ; preds = %entry
  %yy_last_accepting_state = getelementptr inbounds i8, ptr %this, i64 656
  %yy_last_accepting_cpos = getelementptr inbounds i8, ptr %this, i64 664
  br label %for.body

for.body:                                         ; preds = %for.body.lr.ph, %for.inc
  %yy_cp.011 = phi ptr [ %1, %for.body.lr.ph ], [ %incdec.ptr, %for.inc ]
  %yy_current_state.010 = phi i32 [ %0, %for.body.lr.ph ], [ %yy_current_state.1, %for.inc ]
  %3 = load i8, ptr %yy_cp.011, align 1
  %tobool.not = icmp eq i8 %3, 0
  %idxprom4 = sext i32 %yy_current_state.010 to i64
  br i1 %tobool.not, label %if.else, label %if.then

if.then:                                          ; preds = %for.body
  %idxprom2 = zext i8 %3 to i64
  %arrayidx3 = getelementptr inbounds [61 x [128 x i16]], ptr @_ZL6yy_nxt, i64 0, i64 %idxprom4, i64 %idxprom2
  %4 = load i16, ptr %arrayidx3, align 2
  %conv = sext i16 %4 to i32
  br label %if.end

if.else:                                          ; preds = %for.body
  %arrayidx5 = getelementptr inbounds [61 x i32], ptr @_ZL12yy_NUL_trans, i64 0, i64 %idxprom4
  %5 = load i32, ptr %arrayidx5, align 4
  br label %if.end

if.end:                                           ; preds = %if.else, %if.then
  %yy_current_state.1 = phi i32 [ %conv, %if.then ], [ %5, %if.else ]
  switch i32 %yy_current_state.1, label %if.then9 [
    i32 19, label %for.inc
    i32 0, label %for.inc
  ]

if.then9:                                         ; preds = %if.end
  store i32 %yy_current_state.1, ptr %yy_last_accepting_state, align 8
  store ptr %yy_cp.011, ptr %yy_last_accepting_cpos, align 8
  br label %for.inc

for.inc:                                          ; preds = %if.end, %if.end, %if.then9
  %incdec.ptr = getelementptr inbounds i8, ptr %yy_cp.011, i64 1
  %exitcond.not = icmp eq ptr %incdec.ptr, %2
  br i1 %exitcond.not, label %for.end, label %for.body, !llvm.loop !7

for.end:                                          ; preds = %for.inc, %entry
  %yy_current_state.0.lcssa = phi i32 [ %0, %entry ], [ %yy_current_state.1, %for.inc ]
  ret i32 %yy_current_state.0.lcssa
}